(lp0
(lp1
(lp2
F1.47
aF1.455
aF1.44
aF1.425
aF1.41
aF1.395
aF1.38
aF1.365
aF1.35
aF1.335
aF1.32
aF1.305
aF1.29
aF1.275
aF1.26
aF1.245
aF1.23
aF1.215
aF1.2
aF1.185
aF1.17
aF1.155
aF1.14
aF1.125
aF1.11
aF1.095
aF1.08
aF1.065
aF1.05
aF1.035
aF1.02
aF1.005
aF0.99
aF0.975
aF0.96
aF0.945
aF0.93
aF0.915
aF0.9
aF0.885
aF0.87
aF0.855
aF0.84
aF0.825
aF0.81
aF0.795
aF0.78
aF0.765
aF0.75
aF0.735
aF0.72
aF0.705
aF0.69
aF0.675
aF0.66
aF0.645
aF0.63
aF0.615
aF0.6
aF0.585
aF0.57
aF0.555
aF0.54
aF0.525
aF0.51
aF0.495
aF0.48
aF0.465
aF0.45
aF0.435
aF0.42
aF0.405
aF0.39
aF0.375
aF0.36
aF0.345
aF0.33
aF0.315
aF0.3
aF0.285
aF0.27
aF0.255
aF0.24
aF0.225
aF0.21
aF0.195
aF0.18
aF0.165
aF0.15
aF0.135
aF0.12
aF0.105
aF0.09
aF0.075
aF0.06
aF0.045
aF0.03
aF0.015
aF0.0
aF-0.015
aF-0.03
aF-0.045
aF-0.06
aF-0.075
aF-0.09
aF-0.105
aF-0.12
aF-0.135
aF-0.15
aF-0.165
aF-0.18
aF-0.195
aF-0.21
aF-0.225
aF-0.24
aF-0.255
aF-0.27
aF-0.285
aF-0.3
aF-0.315
aF-0.33
aF-0.345
aF-0.36
aF-0.375
aF-0.39
aF-0.405
aF-0.42
aF-0.435
aF-0.45
aF-0.465
aF-0.48
aF-0.495
aF-0.51
aF-0.525
aF-0.54
aF-0.555
aF-0.57
aF-0.585
aF-0.6
aF-0.615
aF-0.63
aF-0.645
aF-0.66
aF-0.675
aF-0.69
aF-0.705
aF-0.72
aF-0.735
aF-0.75
aF-0.765
aF-0.78
aF-0.795
aF-0.81
aF-0.825
aF-0.84
aF-0.855
aF-0.87
aF-0.885
aF-0.9
aF-0.915
aF-0.93
aF-0.945
aF-0.96
aF-0.975
aF-0.99
aF-1.005
aF-1.02
aF-1.035
aF-1.05
aF-1.065
aF-1.08
aF-1.095
aF-1.11
aF-1.125
aF-1.14
aF-1.155
aF-1.17
aF-1.185
aF-1.2
aF-1.215
aF-1.23
aF-1.245
aF-1.26
aF-1.275
aF-1.29
aF-1.305
aF-1.32
aF-1.335
aF-1.35
aF-1.365
aF-1.38
aF-1.395
aF-1.41
aF-1.425
aF-1.44
aF-1.455
aF-1.47
aF-1.485
aF-1.5
aF-1.485
aF-1.47
aF-1.455
aF-1.44
aF-1.425
aF-1.41
aF-1.395
aF-1.38
aF-1.365
aF-1.35
aF-1.335
aF-1.32
aF-1.305
aF-1.29
aF-1.275
aF-1.26
aF-1.245
aF-1.23
aF-1.215
aF-1.2
aF-1.185
aF-1.17
aF-1.155
aF-1.14
aF-1.125
aF-1.11
aF-1.095
aF-1.08
aF-1.065
aF-1.05
aF-1.035
aF-1.02
aF-1.005
aF-0.99
aF-0.975
aF-0.96
aF-0.945
aF-0.93
aF-0.915
aF-0.9
aF-0.885
aF-0.87
aF-0.855
aF-0.84
aF-0.825
aF-0.81
aF-0.795
aF-0.78
aF-0.765
aF-0.75
aF-0.735
aF-0.72
aF-0.705
aF-0.69
aF-0.675
aF-0.66
aF-0.645
aF-0.63
aF-0.615
aF-0.6
aF-0.585
aF-0.57
aF-0.555
aF-0.54
aF-0.525
aF-0.51
aF-0.495
aF-0.48
aF-0.465
aF-0.45
aF-0.435
aF-0.42
aF-0.405
aF-0.39
aF-0.375
aF-0.36
aF-0.345
aF-0.33
aF-0.315
aF-0.3
aF-0.285
aF-0.27
aF-0.255
aF-0.24
aF-0.225
aF-0.21
aF-0.195
aF-0.18
aF-0.165
aF-0.15
aF-0.135
aF-0.12
aF-0.105
aF-0.09
aF-0.075
aF-0.06
aF-0.045
aF-0.03
aF-0.015
aF-0.0
aF0.015
aF0.03
aF0.045
aF0.06
aF0.075
aF0.09
aF0.105
aF0.12
aF0.135
aF0.15
aF0.165
aF0.18
aF0.195
aF0.21
aF0.225
aF0.24
aF0.255
aF0.27
aF0.285
aF0.3
aF0.315
aF0.33
aF0.345
aF0.36
aF0.375
aF0.39
aF0.405
aF0.42
aF0.435
aF0.45
aF0.465
aF0.48
aF0.495
aF0.51
aF0.525
aF0.54
aF0.555
aF0.57
aF0.585
aF0.6
aF0.615
aF0.63
aF0.645
aF0.66
aF0.675
aF0.69
aF0.705
aF0.72
aF0.735
aF0.75
aF0.765
aF0.78
aF0.795
aF0.81
aF0.825
aF0.84
aF0.855
aF0.87
aF0.885
aF0.9
aF0.915
aF0.93
aF0.945
aF0.96
aF0.975
aF0.99
aF1.005
aF1.02
aF1.035
aF1.05
aF1.065
aF1.08
aF1.095
aF1.11
aF1.125
aF1.14
aF1.155
aF1.17
aF1.185
aF1.2
aF1.215
aF1.23
aF1.245
aF1.26
aF1.275
aF1.29
aF1.305
aF1.32
aF1.335
aF1.35
aF1.365
aF1.38
aF1.395
aF1.41
aF1.425
aF1.44
aF1.455
aF1.47
aF1.485
aF1.5
aa(lp3
F152.57005
aF152.54153
aF152.55015
aF152.53944
aF152.53183
aF152.5313
aF152.52749
aF152.51599
aF152.51604
aF152.49942
aF152.5033
aF152.48886
aF152.50014
aF152.50117
aF152.48642
aF152.48399
aF152.49542
aF152.49654
aF152.4856
aF152.48012
aF152.48114
aF152.48165
aF152.47729
aF152.46893
aF152.47643
aF152.48044
aF152.46076
aF152.45664
aF152.45969
aF152.46402
aF152.45271
aF152.45075
aF152.45571
aF152.44667
aF152.4406
aF152.44537
aF152.43678
aF152.43736
aF152.43358
aF152.43996
aF152.43487
aF152.41604
aF152.3983
aF152.3914
aF152.40557
aF152.40209
aF152.39239
aF152.40013
aF152.40185
aF152.39622
aF152.40873
aF152.40936
aF152.39245
aF152.38222
aF152.39525
aF152.39211
aF152.38998
aF152.39792
aF152.38516
aF152.39158
aF152.37661
aF152.36944
aF152.37307
aF152.374
aF152.38052
aF152.38146
aF152.36888
aF152.37837
aF152.37541
aF152.37413
aF152.36884
aF152.36848
aF152.36061
aF152.34926
aF152.33978
aF152.33899
aF152.33382
aF152.34054
aF152.35053
aF152.354
aF152.34613
aF152.35154
aF152.33898
aF152.3353
aF152.3351
aF152.3451
aF152.34297
aF152.34652
aF152.33827
aF152.33398
aF152.33455
aF152.34571
aF152.3512
aF152.34838
aF152.33579
aF152.32893
aF152.33621
aF152.31239
aF152.32187
aF152.32076
aF152.31713
aF152.32487
aF152.30986
aF152.30201
aF152.31221
aF152.31434
aF152.31168
aF152.29573
aF152.31546
aF152.30342
aF152.30216
aF152.29516
aF152.276
aF152.25756
aF152.24201
aF152.19155
aF152.16189
aF152.09663
aF152.01213
aF151.95861
aF151.88061
aF151.82737
aF151.73729
aF151.67528
aF151.62013
aF151.54149
aF151.48118
aF151.4316
aF151.3758
aF151.32568
aF151.2795
aF151.2233
aF151.20411
aF151.16234
aF151.12268
aF151.07746
aF151.05764
aF151.03456
aF151.00961
aF151.00041
aF150.98499
aF150.94657
aF150.93105
aF150.92341
aF150.90685
aF150.90114
aF150.88356
aF150.88695
aF150.85796
aF150.84295
aF150.83402
aF150.81318
aF150.8299
aF150.82744
aF150.7989
aF150.78861
aF150.78208
aF150.78
aF150.77284
aF150.78352
aF150.79082
aF150.79165
aF150.77449
aF150.76777
aF150.75643
aF150.78351
aF150.78393
aF150.77505
aF150.78313
aF150.78587
aF150.78383
aF150.78362
aF150.79695
aF150.78584
aF150.79635
aF150.79938
aF150.80016
aF150.79676
aF150.80991
aF150.80697
aF150.81653
aF150.81657
aF150.80883
aF150.82578
aF150.80996
aF150.81529
aF150.84145
aF150.81853
aF150.82403
aF150.81993
aF150.82583
aF150.82288
aF150.82034
aF150.81199
aF150.81957
aF150.81888
aF150.82168
aF150.83882
aF150.8235
aF150.83814
aF150.84216
aF150.83128
aF150.83407
aF150.84197
aF150.82904
aF150.8306
aF150.83637
aF150.83963
aF150.83374
aF150.8214
aF150.82293
aF150.81535
aF150.82523
aF150.80725
aF150.81431
aF150.80565
aF150.79061
aF150.78126
aF150.7899
aF150.7783
aF150.77348
aF150.76716
aF150.77993
aF150.77222
aF150.76944
aF150.76437
aF150.76076
aF150.73972
aF150.74674
aF150.73672
aF150.71816
aF150.70997
aF150.72958
aF150.71522
aF150.72066
aF150.72464
aF150.72065
aF150.73665
aF150.73354
aF150.72035
aF150.72616
aF150.72679
aF150.74172
aF150.73386
aF150.72295
aF150.71841
aF150.71768
aF150.71991
aF150.71764
aF150.70623
aF150.70437
aF150.69882
aF150.68978
aF150.68299
aF150.6865
aF150.67587
aF150.68881
aF150.67467
aF150.67269
aF150.67
aF150.66796
aF150.67114
aF150.6741
aF150.66158
aF150.65083
aF150.64392
aF150.64176
aF150.64902
aF150.6323
aF150.63481
aF150.63697
aF150.6371
aF150.64132
aF150.6396
aF150.64643
aF150.64137
aF150.64287
aF150.64628
aF150.65935
aF150.64028
aF150.63407
aF150.64103
aF150.63986
aF150.63113
aF150.64762
aF150.65451
aF150.6456
aF150.64764
aF150.62461
aF150.63347
aF150.65211
aF150.64452
aF150.63505
aF150.63134
aF150.62714
aF150.62076
aF150.61264
aF150.63004
aF150.62635
aF150.62884
aF150.62207
aF150.65713
aF150.65353
aF150.65341
aF150.65599
aF150.65667
aF150.66815
aF150.6658
aF150.6719
aF150.68411
aF150.68173
aF150.67753
aF150.71616
aF150.72177
aF150.75201
aF150.81798
aF150.86849
aF150.93019
aF150.99002
aF151.05897
aF151.13187
aF151.19743
aF151.28038
aF151.36014
aF151.41459
aF151.48476
aF151.53465
aF151.59603
aF151.65484
aF151.69873
aF151.75997
aF151.81576
aF151.84421
aF151.88697
aF151.92184
aF151.95394
aF151.98005
aF152.02511
aF152.06664
aF152.08317
aF152.11366
aF152.1255
aF152.15132
aF152.17931
aF152.20562
aF152.21353
aF152.22012
aF152.24346
aF152.24139
aF152.25899
aF152.28095
aF152.29467
aF152.29432
aF152.31676
aF152.32149
aF152.32751
aF152.34841
aF152.35824
aF152.3661
aF152.36735
aF152.37601
aF152.37647
aF152.38561
aF152.37917
aF152.38593
aF152.39259
aF152.39914
aF152.40908
aF152.42998
aF152.41901
aF152.42973
aF152.43047
aF152.43584
aF152.44305
aF152.45283
aF152.46612
aF152.46026
aF152.47424
aF152.48204
aF152.48546
aF152.47282
aF152.48498
aF152.49195
aF152.48223
aF152.49714
aF152.49616
aF152.49385
aF152.50724
aF152.50972
aF152.50397
aF152.52339
aF152.53024
aF152.52895
aF152.54502
aF152.54275
aF152.53757
aF152.53761
aF152.54555
aF152.54175
aaa.